; Function Attrs: mustprogress nofree norecurse nosync nounwind willreturn memory(read, inaccessiblemem: none) uwtable
define hidden noundef i64 @_ZNK4cvc58internal19RealAlgebraicNumber4hashEv(ptr noundef nonnull readonly align 8 captures(none) dereferenceable(32) %0) local_unnamed_addr #10 align 2 {
  %2 = getelementptr inbounds nuw i8, ptr %0, i64 4
  %3 = load i32, ptr %2, align 4, !tbaa !3
  %.not.i.i = icmp eq i32 %3, 0
  br i1 %.not.i.i, label %_ZN4cvc58internal9gmpz_hashEPK12__mpz_struct.exit.i, label %__gmpz_getlimbn.exit.lr.ph.i.i

__gmpz_getlimbn.exit.lr.ph.i.i:                   ; preds = %1
  %4 = getelementptr inbounds nuw i8, ptr %0, i64 8
  %5 = load ptr, ptr %4, align 8, !tbaa !36
  %smax.i.i = tail call i32 @llvm.abs.i32(i32 %3, i1 false)
  %wide.trip.count.i.i = zext i32 %smax.i.i to i64
  br label %__gmpz_getlimbn.exit.i.i

__gmpz_getlimbn.exit.i.i:                         ; preds = %__gmpz_getlimbn.exit.i.i, %__gmpz_getlimbn.exit.lr.ph.i.i
  %indvars.iv.i.i = phi i64 [ 0, %__gmpz_getlimbn.exit.lr.ph.i.i ], [ %indvars.iv.next.i.i, %__gmpz_getlimbn.exit.i.i ]
  %.011.i.i = phi i64 [ 0, %__gmpz_getlimbn.exit.lr.ph.i.i ], [ %9, %__gmpz_getlimbn.exit.i.i ]
  %6 = getelementptr inbounds nuw i64, ptr %5, i64 %indvars.iv.i.i
  %7 = load i64, ptr %6, align 8, !tbaa !37
  %8 = shl i64 %.011.i.i, 1
  %9 = xor i64 %7, %8
  %indvars.iv.next.i.i = add nuw nsw i64 %indvars.iv.i.i, 1
  %exitcond.not.i.i = icmp eq i64 %indvars.iv.next.i.i, %wide.trip.count.i.i
  br i1 %exitcond.not.i.i, label %_ZN4cvc58internal9gmpz_hashEPK12__mpz_struct.exit.i, label %__gmpz_getlimbn.exit.i.i, !llvm.loop !38

_ZN4cvc58internal9gmpz_hashEPK12__mpz_struct.exit.i: ; preds = %__gmpz_getlimbn.exit.i.i, %1
  %.0.lcssa.i.i = phi i64 [ 0, %1 ], [ %9, %__gmpz_getlimbn.exit.i.i ]
  %10 = getelementptr inbounds nuw i8, ptr %0, i64 20
  %11 = load i32, ptr %10, align 4, !tbaa !3
  %.not.i2.i = icmp eq i32 %11, 0
  br i1 %.not.i2.i, label %_ZNK4cvc58internal8Rational4hashEv.exit, label %__gmpz_getlimbn.exit.lr.ph.i3.i

__gmpz_getlimbn.exit.lr.ph.i3.i:                  ; preds = %_ZN4cvc58internal9gmpz_hashEPK12__mpz_struct.exit.i
  %12 = getelementptr inbounds nuw i8, ptr %0, i64 24
  %13 = load ptr, ptr %12, align 8, !tbaa !36
  %smax.i4.i = tail call i32 @llvm.abs.i32(i32 %11, i1 false)
  %wide.trip.count.i5.i = zext i32 %smax.i4.i to i64
  br label %__gmpz_getlimbn.exit.i6.i

__gmpz_getlimbn.exit.i6.i:                        ; preds = %__gmpz_getlimbn.exit.i6.i, %__gmpz_getlimbn.exit.lr.ph.i3.i
  %indvars.iv.i7.i = phi i64 [ 0, %__gmpz_getlimbn.exit.lr.ph.i3.i ], [ %indvars.iv.next.i9.i, %__gmpz_getlimbn.exit.i6.i ]
  %.011.i8.i = phi i64 [ 0, %__gmpz_getlimbn.exit.lr.ph.i3.i ], [ %17, %__gmpz_getlimbn.exit.i6.i ]
  %14 = getelementptr inbounds nuw i64, ptr %13, i64 %indvars.iv.i7.i
  %15 = load i64, ptr %14, align 8, !tbaa !37
  %16 = shl i64 %.011.i8.i, 1
  %17 = xor i64 %15, %16
  %indvars.iv.next.i9.i = add nuw nsw i64 %indvars.iv.i7.i, 1
  %exitcond.not.i10.i = icmp eq i64 %indvars.iv.next.i9.i, %wide.trip.count.i5.i
  br i1 %exitcond.not.i10.i, label %_ZNK4cvc58internal8Rational4hashEv.exit, label %__gmpz_getlimbn.exit.i6.i, !llvm.loop !38

_ZNK4cvc58internal8Rational4hashEv.exit:          ; preds = %__gmpz_getlimbn.exit.i6.i, %_ZN4cvc58internal9gmpz_hashEPK12__mpz_struct.exit.i
  %.0.lcssa.i11.i = phi i64 [ 0, %_ZN4cvc58internal9gmpz_hashEPK12__mpz_struct.exit.i ], [ %17, %__gmpz_getlimbn.exit.i6.i ]
  %18 = xor i64 %.0.lcssa.i11.i, %.0.lcssa.i.i
  ret i64 %18
}